target datalayout = "e-m:e-p270:32:32-p271:32:32-p272:64:64-i64:64-i128:128-f80:128-n8:16:32:64-S128"
target triple = "x86_64-unknown-linux-gnu"

%"class.icu_75::UObject" = type { ptr }
%"class.icu_75::SpoofImpl" = type <{ %"class.icu_75::UObject", %"class.icu_75::IcuCApiHelper", i32, ptr, ptr, ptr, i32, [4 x i8] }>
%"class.icu_75::IcuCApiHelper" = type { i32 }

; Function Attrs: mustprogress uwtable
define i32 @uspoof_serialize_75(ptr noundef %sc, ptr noundef %buf, i32 noundef %capacity, ptr noundef %status) #0 {
entry:
  %retval = alloca i32, align 4
  %sc.addr = alloca ptr, align 8
  %buf.addr = alloca ptr, align 8
  %capacity.addr = alloca i32, align 4
  %status.addr = alloca ptr, align 8
  %This = alloca ptr, align 8
  store ptr %sc, ptr %sc.addr, align 8
  store ptr %buf, ptr %buf.addr, align 8
  store i32 %capacity, ptr %capacity.addr, align 4
  store ptr %status, ptr %status.addr, align 8
  %0 = load ptr, ptr %sc.addr, align 8
  %1 = load ptr, ptr %status.addr, align 8
  %call = call noundef ptr @_ZN6icu_759SpoofImpl12validateThisEP13USpoofCheckerR10UErrorCode(ptr noundef %0, ptr noundef nonnull align 4 dereferenceable(4) %1)
  store ptr %call, ptr %This, align 8
  %2 = load ptr, ptr %This, align 8
  %cmp = icmp eq ptr %2, null
  br i1 %cmp, label %if.then, label %if.end

if.then:                                          ; preds = %entry
  store i32 0, ptr %retval, align 4
  br label %return

if.end:                                           ; preds = %entry
  %3 = load ptr, ptr %This, align 8
  %fSpoofData = getelementptr inbounds %"class.icu_75::SpoofImpl", ptr %3, i32 0, i32 3
  %4 = load ptr, ptr %fSpoofData, align 8
  %5 = load ptr, ptr %buf.addr, align 8
  %6 = load i32, ptr %capacity.addr, align 4
  %7 = load ptr, ptr %status.addr, align 8
  %call1 = call noundef i32 @_ZNK6icu_759SpoofData9serializeEPviR10UErrorCode(ptr noundef nonnull align 8 dereferenceable(56) %4, ptr noundef %5, i32 noundef %6, ptr noundef nonnull align 4 dereferenceable(4) %7)
  store i32 %call1, ptr %retval, align 4
  br label %return

return:                                           ; preds = %if.end, %if.then
  %8 = load i32, ptr %retval, align 4
  ret i32 %8
}