; Function Attrs: mustprogress uwtable
define noundef i32 @uspoof_serialize_75(ptr noundef %sc, ptr noundef %buf, i32 noundef %capacity, ptr noundef nonnull %status) local_unnamed_addr #0 {
entry:
  %call = tail call noundef ptr @_ZN6icu_759SpoofImpl12validateThisEP13USpoofCheckerR10UErrorCode(ptr noundef %sc, ptr noundef nonnull align 4 dereferenceable(4) %status)
  %cmp = icmp eq ptr %call, null
  br i1 %cmp, label %return, label %if.end

if.end:                                           ; preds = %entry
  %fSpoofData = getelementptr inbounds i8, ptr %call, i64 16
  %0 = load ptr, ptr %fSpoofData, align 8
  %call1 = tail call noundef i32 @_ZNK6icu_759SpoofData9serializeEPviR10UErrorCode(ptr noundef nonnull align 8 dereferenceable(56) %0, ptr noundef %buf, i32 noundef %capacity, ptr noundef nonnull align 4 dereferenceable(4) %status)
  br label %return

return:                                           ; preds = %entry, %if.end
  %retval.0 = phi i32 [ %call1, %if.end ], [ 0, %entry ]
  ret i32 %retval.0
}